target datalayout = "e-m:e-p270:32:32-p271:32:32-p272:64:64-i64:64-i128:128-f80:128-n8:16:32:64-S128"
target triple = "x86_64-pc-linux-gnu"

%struct.opj_tgt_tree = type { i32, i32, i32, ptr, i32 }
%struct.opj_tgt_node = type { ptr, i32, i32, i32 }

; Function Attrs: nounwind uwtable
define hidden i32 @opj_tgt_decode(ptr noundef %0, ptr noundef %1, i32 noundef %2, i32 noundef %3) #0 {
  %5 = alloca ptr, align 8
  %6 = alloca ptr, align 8
  %7 = alloca i32, align 4
  %8 = alloca i32, align 4
  %9 = alloca [31 x ptr], align 16
  %10 = alloca ptr, align 8
  %11 = alloca ptr, align 8
  %12 = alloca i32, align 4
  store ptr %0, ptr %5, align 8, !tbaa !36
  store ptr %1, ptr %6, align 8, !tbaa !12
  store i32 %2, ptr %7, align 4, !tbaa !3
  store i32 %3, ptr %8, align 4, !tbaa !3
  call void @llvm.lifetime.start.p0(i64 248, ptr %9) #4
  call void @llvm.lifetime.start.p0(i64 8, ptr %10) #4
  call void @llvm.lifetime.start.p0(i64 8, ptr %11) #4
  call void @llvm.lifetime.start.p0(i64 4, ptr %12) #4
  %13 = getelementptr inbounds [31 x ptr], ptr %9, i64 0, i64 0
  store ptr %13, ptr %10, align 8, !tbaa !38
  %14 = load ptr, ptr %6, align 8, !tbaa !12
  %15 = getelementptr inbounds nuw %struct.opj_tgt_tree, ptr %14, i32 0, i32 3
  %16 = load ptr, ptr %15, align 8, !tbaa !20
  %17 = load i32, ptr %7, align 4, !tbaa !3
  %18 = zext i32 %17 to i64
  %19 = getelementptr inbounds nuw %struct.opj_tgt_node, ptr %16, i64 %18
  store ptr %19, ptr %11, align 8, !tbaa !10
  br label %20

20:                                               ; preds = %25, %4
  %21 = load ptr, ptr %11, align 8, !tbaa !10
  %22 = getelementptr inbounds nuw %struct.opj_tgt_node, ptr %21, i32 0, i32 0
  %23 = load ptr, ptr %22, align 8, !tbaa !22
  %24 = icmp ne ptr %23, null
  br i1 %24, label %25, label %32

25:                                               ; preds = %20
  %26 = load ptr, ptr %11, align 8, !tbaa !10
  %27 = load ptr, ptr %10, align 8, !tbaa !38
  %28 = getelementptr inbounds nuw ptr, ptr %27, i32 1
  store ptr %28, ptr %10, align 8, !tbaa !38
  store ptr %26, ptr %27, align 8, !tbaa !10
  %29 = load ptr, ptr %11, align 8, !tbaa !10
  %30 = getelementptr inbounds nuw %struct.opj_tgt_node, ptr %29, i32 0, i32 0
  %31 = load ptr, ptr %30, align 8, !tbaa !22
  store ptr %31, ptr %11, align 8, !tbaa !10
  br label %20, !llvm.loop !43

32:                                               ; preds = %20
  store i32 0, ptr %12, align 4, !tbaa !3
  br label %33

33:                                               ; preds = %80, %32
  %34 = load i32, ptr %12, align 4, !tbaa !3
  %35 = load ptr, ptr %11, align 8, !tbaa !10
  %36 = getelementptr inbounds nuw %struct.opj_tgt_node, ptr %35, i32 0, i32 2
  %37 = load i32, ptr %36, align 4, !tbaa !28
  %38 = icmp sgt i32 %34, %37
  br i1 %38, label %39, label %43

39:                                               ; preds = %33
  %40 = load i32, ptr %12, align 4, !tbaa !3
  %41 = load ptr, ptr %11, align 8, !tbaa !10
  %42 = getelementptr inbounds nuw %struct.opj_tgt_node, ptr %41, i32 0, i32 2
  store i32 %40, ptr %42, align 4, !tbaa !28
  br label %47

43:                                               ; preds = %33
  %44 = load ptr, ptr %11, align 8, !tbaa !10
  %45 = getelementptr inbounds nuw %struct.opj_tgt_node, ptr %44, i32 0, i32 2
  %46 = load i32, ptr %45, align 4, !tbaa !28
  store i32 %46, ptr %12, align 4, !tbaa !3
  br label %47

47:                                               ; preds = %43, %39
  br label %48

48:                                               ; preds = %71, %47
  %49 = load i32, ptr %12, align 4, !tbaa !3
  %50 = load i32, ptr %8, align 4, !tbaa !3
  %51 = icmp slt i32 %49, %50
  br i1 %51, label %52, label %58

52:                                               ; preds = %48
  %53 = load i32, ptr %12, align 4, !tbaa !3
  %54 = load ptr, ptr %11, align 8, !tbaa !10
  %55 = getelementptr inbounds nuw %struct.opj_tgt_node, ptr %54, i32 0, i32 1
  %56 = load i32, ptr %55, align 8, !tbaa !27
  %57 = icmp slt i32 %53, %56
  br label %58

58:                                               ; preds = %52, %48
  %59 = phi i1 [ false, %48 ], [ %57, %52 ]
  br i1 %59, label %60, label %72

60:                                               ; preds = %58
  %61 = load ptr, ptr %5, align 8, !tbaa !36
  %62 = call i32 @opj_bio_read(ptr noundef %61, i32 noundef 1)
  %63 = icmp ne i32 %62, 0
  br i1 %63, label %64, label %68

64:                                               ; preds = %60
  %65 = load i32, ptr %12, align 4, !tbaa !3
  %66 = load ptr, ptr %11, align 8, !tbaa !10
  %67 = getelementptr inbounds nuw %struct.opj_tgt_node, ptr %66, i32 0, i32 1
  store i32 %65, ptr %67, align 8, !tbaa !27
  br label %71

68:                                               ; preds = %60
  %69 = load i32, ptr %12, align 4, !tbaa !3
  %70 = add nsw i32 %69, 1
  store i32 %70, ptr %12, align 4, !tbaa !3
  br label %71

71:                                               ; preds = %68, %64
  br label %48, !llvm.loop !44

72:                                               ; preds = %58
  %73 = load i32, ptr %12, align 4, !tbaa !3
  %74 = load ptr, ptr %11, align 8, !tbaa !10
  %75 = getelementptr inbounds nuw %struct.opj_tgt_node, ptr %74, i32 0, i32 2
  store i32 %73, ptr %75, align 4, !tbaa !28
  %76 = load ptr, ptr %10, align 8, !tbaa !38
  %77 = getelementptr inbounds [31 x ptr], ptr %9, i64 0, i64 0
  %78 = icmp eq ptr %76, %77
  br i1 %78, label %79, label %80

79:                                               ; preds = %72
  br label %84

80:                                               ; preds = %72
  %81 = load ptr, ptr %10, align 8, !tbaa !38
  %82 = getelementptr inbounds ptr, ptr %81, i32 -1
  store ptr %82, ptr %10, align 8, !tbaa !38
  %83 = load ptr, ptr %82, align 8, !tbaa !10
  store ptr %83, ptr %11, align 8, !tbaa !10
  br label %33

84:                                               ; preds = %79
  %85 = load ptr, ptr %11, align 8, !tbaa !10
  %86 = getelementptr inbounds nuw %struct.opj_tgt_node, ptr %85, i32 0, i32 1
  %87 = load i32, ptr %86, align 8, !tbaa !27
  %88 = load i32, ptr %8, align 4, !tbaa !3
  %89 = icmp slt i32 %87, %88
  %90 = select i1 %89, i32 1, i32 0
  call void @llvm.lifetime.end.p0(i64 4, ptr %12) #4
  call void @llvm.lifetime.end.p0(i64 8, ptr %11) #4
  call void @llvm.lifetime.end.p0(i64 8, ptr %10) #4
  call void @llvm.lifetime.end.p0(i64 248, ptr %9) #4
  ret i32 %90
}