; Function Attrs: nounwind uwtable
define hidden range(i32 0, 2) i32 @opj_tgt_decode(ptr noundef %0, ptr noundef readonly captures(none) %1, i32 noundef %2, i32 noundef %3) local_unnamed_addr #0 {
  %5 = alloca [31 x ptr], align 16
  call void @llvm.lifetime.start.p0(i64 248, ptr nonnull %5) #6
  %6 = getelementptr inbounds nuw i8, ptr %1, i64 16
  %7 = load ptr, ptr %6, align 8, !tbaa !15
  %8 = zext i32 %2 to i64
  %9 = getelementptr inbounds nuw %struct.opj_tgt_node, ptr %7, i64 %8
  %10 = load ptr, ptr %9, align 8, !tbaa !17
  %.not31 = icmp eq ptr %10, null
  br i1 %.not31, label %.preheader.preheader, label %.lr.ph

.lr.ph:                                           ; preds = %4, %.lr.ph
  %11 = phi ptr [ %13, %.lr.ph ], [ %10, %4 ]
  %.02433 = phi ptr [ %11, %.lr.ph ], [ %9, %4 ]
  %.02632 = phi ptr [ %12, %.lr.ph ], [ %5, %4 ]
  %12 = getelementptr inbounds nuw i8, ptr %.02632, i64 8
  store ptr %.02433, ptr %.02632, align 8, !tbaa !31
  %13 = load ptr, ptr %11, align 8, !tbaa !17
  %.not = icmp eq ptr %13, null
  br i1 %.not, label %.preheader.preheader, label %.lr.ph, !llvm.loop !34

.preheader.preheader:                             ; preds = %.lr.ph, %4
  %.127.ph = phi ptr [ %5, %4 ], [ %12, %.lr.ph ]
  %.125.ph = phi ptr [ %9, %4 ], [ %11, %.lr.ph ]
  br label %.preheader

.preheader:                                       ; preds = %.preheader.preheader, %31
  %.127 = phi ptr [ %32, %31 ], [ %.127.ph, %.preheader.preheader ]
  %.125 = phi ptr [ %33, %31 ], [ %.125.ph, %.preheader.preheader ]
  %.0 = phi i32 [ %.2.lcssa, %31 ], [ 0, %.preheader.preheader ]
  %14 = getelementptr inbounds nuw i8, ptr %.125, i64 12
  %15 = load i32, ptr %14, align 4, !tbaa !23
  %16 = icmp sgt i32 %.0, %15
  br i1 %16, label %17, label %18

17:                                               ; preds = %.preheader
  store i32 %.0, ptr %14, align 4, !tbaa !23
  br label %18

18:                                               ; preds = %.preheader, %17
  %.1 = phi i32 [ %.0, %17 ], [ %15, %.preheader ]
  %19 = getelementptr inbounds nuw i8, ptr %.125, i64 8
  %20 = icmp slt i32 %.1, %3
  br i1 %20, label %.lr.ph36, label %.critedge

.lr.ph36:                                         ; preds = %18, %28
  %.235 = phi i32 [ %.3, %28 ], [ %.1, %18 ]
  %21 = load i32, ptr %19, align 8, !tbaa !22
  %22 = icmp slt i32 %.235, %21
  br i1 %22, label %23, label %.critedge

23:                                               ; preds = %.lr.ph36
  %24 = call i32 @opj_bio_read(ptr noundef %0, i32 noundef 1) #6
  %.not30 = icmp eq i32 %24, 0
  br i1 %.not30, label %26, label %25

25:                                               ; preds = %23
  store i32 %.235, ptr %19, align 8, !tbaa !22
  br label %28

26:                                               ; preds = %23
  %27 = add nuw nsw i32 %.235, 1
  br label %28

28:                                               ; preds = %26, %25
  %.3 = phi i32 [ %.235, %25 ], [ %27, %26 ]
  %29 = icmp slt i32 %.3, %3
  br i1 %29, label %.lr.ph36, label %.critedge, !llvm.loop !35

.critedge:                                        ; preds = %.lr.ph36, %28, %18
  %.2.lcssa = phi i32 [ %.1, %18 ], [ %.3, %28 ], [ %.235, %.lr.ph36 ]
  store i32 %.2.lcssa, ptr %14, align 4, !tbaa !23
  %30 = icmp eq ptr %.127, %5
  br i1 %30, label %34, label %31

31:                                               ; preds = %.critedge
  %32 = getelementptr inbounds i8, ptr %.127, i64 -8
  %33 = load ptr, ptr %32, align 8, !tbaa !31
  br label %.preheader

34:                                               ; preds = %.critedge
  %35 = load i32, ptr %19, align 8, !tbaa !22
  %36 = icmp slt i32 %35, %3
  %37 = zext i1 %36 to i32
  call void @llvm.lifetime.end.p0(i64 248, ptr nonnull %5) #6
  ret i32 %37
}